target datalayout = "e-m:e-p270:32:32-p271:32:32-p272:64:64-i64:64-i128:128-f80:128-n8:16:32:64-S128"
target triple = "x86_64-pc-linux-gnu"

%struct.ssl_common_options = type { ptr, ptr }

@ssl_options = internal global %struct.ssl_common_options zeroinitializer, align 8
@tls_handle = internal global ptr null, align 8
@proto_tls = internal global i32 0, align 4
@.str.26 = private unnamed_addr constant [1 x i8] zeroinitializer, align 1
@.str.906 = private unnamed_addr constant [4 x i8] c"tls\00", align 1
@ssldecrypt_uat = internal global ptr null, align 8
@ssl_keys_list = internal global ptr null, align 8
@.str.938 = private unnamed_addr constant [11 x i8] c"debug_file\00", align 1
@ssl_debug_file_name = internal global ptr null, align 8
@.str.961 = private unnamed_addr constant [88 x i8] c"The TLS debug file (\22%s\22) cannot point to the same file as the TLS key log file (\22%s\22).\00", align 1
@proto_reg_handoff_ssl.initialized = internal global i8 0, align 1
@.str.962 = private unnamed_addr constant [12 x i8] c"OSI layer 7\00", align 1
@exported_pdu_tap = internal global i32 -1, align 4
@.str.963 = private unnamed_addr constant [24 x i8] c"1.3.6.1.4.1.11129.2.4.2\00", align 1
@.str.964 = private unnamed_addr constant [31 x i8] c"SignedCertificateTimestampList\00", align 1
@.str.965 = private unnamed_addr constant [24 x i8] c"1.3.6.1.4.1.11129.2.4.5\00", align 1
@.str.966 = private unnamed_addr constant [4 x i8] c"tcp\00", align 1
@.str.967 = private unnamed_addr constant [17 x i8] c"SSL/TLS over TCP\00", align 1
@.str.968 = private unnamed_addr constant [8 x i8] c"tls_tcp\00", align 1
@.str.969 = private unnamed_addr constant [13 x i8] c"http.upgrade\00", align 1
@.str.1068 = private unnamed_addr constant [2 x i8] c";\00", align 1
@.str.1069 = private unnamed_addr constant [2 x i8] c",\00", align 1
@.str.1070 = private unnamed_addr constant [25 x i8] c"\22%s\22,\22%s\22,\22%s\22,\22%s\22,\22%s\22\00", align 1
@.str.1071 = private unnamed_addr constant [50 x i8] c"ssl_parse_old_keys: Can't load UAT string %s: %s\0A\00", align 1

; Function Attrs: null_pointer_is_valid sspstrong uwtable
define internal void @ssl_parse_old_keys() #0 {
  %1 = alloca ptr, align 8
  %2 = alloca ptr, align 8
  %3 = alloca ptr, align 8
  %4 = alloca ptr, align 8
  %5 = alloca i32, align 4
  %6 = alloca ptr, align 8
  %7 = alloca ptr, align 8
  call void @llvm.lifetime.start.p0(i64 8, ptr %1) #18
  call void @llvm.lifetime.start.p0(i64 8, ptr %2) #18
  call void @llvm.lifetime.start.p0(i64 8, ptr %3) #18
  call void @llvm.lifetime.start.p0(i64 8, ptr %4) #18
  call void @llvm.lifetime.start.p0(i64 4, ptr %5) #18
  %8 = load ptr, ptr @ssldecrypt_uat, align 8
  %9 = icmp ne ptr %8, null
  br i1 %9, label %10, label %105

10:                                               ; preds = %0
  %11 = load ptr, ptr @ssl_keys_list, align 8
  %12 = icmp ne ptr %11, null
  br i1 %12, label %13, label %105

13:                                               ; preds = %10
  %14 = load ptr, ptr @ssl_keys_list, align 8
  %15 = getelementptr i8, ptr %14, i64 0
  %16 = load i8, ptr %15, align 1
  %17 = sext i8 %16 to i32
  %18 = icmp ne i32 %17, 0
  br i1 %18, label %19, label %105

19:                                               ; preds = %13
  %20 = load ptr, ptr @ssl_keys_list, align 8
  %21 = call ptr @g_strsplit(ptr noundef %20, ptr noundef @.str.1068, i32 noundef 0)
  store ptr %21, ptr %1, align 8
  store i32 0, ptr %5, align 4
  br label %22

22:                                               ; preds = %100, %19
  %23 = load ptr, ptr %1, align 8
  %24 = load i32, ptr %5, align 4
  %25 = zext i32 %24 to i64
  %26 = getelementptr ptr, ptr %23, i64 %25
  %27 = load ptr, ptr %26, align 8
  %28 = icmp ne ptr %27, null
  br i1 %28, label %29, label %103

29:                                               ; preds = %22
  %30 = load ptr, ptr %1, align 8
  %31 = load i32, ptr %5, align 4
  %32 = zext i32 %31 to i64
  %33 = getelementptr ptr, ptr %30, i64 %32
  %34 = load ptr, ptr %33, align 8
  %35 = call ptr @g_strsplit(ptr noundef %34, ptr noundef @.str.1069, i32 noundef 5)
  store ptr %35, ptr %2, align 8
  %36 = load ptr, ptr %2, align 8
  %37 = getelementptr ptr, ptr %36, i64 0
  %38 = load ptr, ptr %37, align 8
  %39 = icmp ne ptr %38, null
  br i1 %39, label %40, label %98

40:                                               ; preds = %29
  %41 = load ptr, ptr %2, align 8
  %42 = getelementptr ptr, ptr %41, i64 1
  %43 = load ptr, ptr %42, align 8
  %44 = icmp ne ptr %43, null
  br i1 %44, label %45, label %98

45:                                               ; preds = %40
  %46 = load ptr, ptr %2, align 8
  %47 = getelementptr ptr, ptr %46, i64 2
  %48 = load ptr, ptr %47, align 8
  %49 = icmp ne ptr %48, null
  br i1 %49, label %50, label %98

50:                                               ; preds = %45
  %51 = load ptr, ptr %2, align 8
  %52 = getelementptr ptr, ptr %51, i64 3
  %53 = load ptr, ptr %52, align 8
  %54 = icmp ne ptr %53, null
  br i1 %54, label %55, label %98

55:                                               ; preds = %50
  call void @llvm.lifetime.start.p0(i64 8, ptr %6) #18
  %56 = load ptr, ptr %2, align 8
  %57 = getelementptr ptr, ptr %56, i64 3
  %58 = load ptr, ptr %57, align 8
  %59 = load ptr, ptr %2, align 8
  %60 = getelementptr ptr, ptr %59, i64 3
  %61 = load ptr, ptr %60, align 8
  %62 = call i64 @strlen(ptr noundef %61) #20
  %63 = trunc i64 %62 to i32
  %64 = call ptr @uat_esc(ptr noundef %58, i32 noundef %63)
  store ptr %64, ptr %6, align 8
  call void @llvm.lifetime.start.p0(i64 8, ptr %7) #18
  %65 = load ptr, ptr %2, align 8
  %66 = getelementptr ptr, ptr %65, i64 4
  %67 = load ptr, ptr %66, align 8
  %68 = icmp ne ptr %67, null
  br i1 %68, label %69, label %73

69:                                               ; preds = %55
  %70 = load ptr, ptr %2, align 8
  %71 = getelementptr ptr, ptr %70, i64 4
  %72 = load ptr, ptr %71, align 8
  br label %74

73:                                               ; preds = %55
  br label %74

74:                                               ; preds = %73, %69
  %75 = phi ptr [ %72, %69 ], [ @.str.26, %73 ]
  store ptr %75, ptr %7, align 8
  %76 = load ptr, ptr %2, align 8
  %77 = getelementptr ptr, ptr %76, i64 0
  %78 = load ptr, ptr %77, align 8
  %79 = load ptr, ptr %2, align 8
  %80 = getelementptr ptr, ptr %79, i64 1
  %81 = load ptr, ptr %80, align 8
  %82 = load ptr, ptr %2, align 8
  %83 = getelementptr ptr, ptr %82, i64 2
  %84 = load ptr, ptr %83, align 8
  %85 = load ptr, ptr %6, align 8
  %86 = load ptr, ptr %7, align 8
  %87 = call noalias ptr (ptr, ptr, ...) @wmem_strdup_printf(ptr noundef null, ptr noundef @.str.1070, ptr noundef %78, ptr noundef %81, ptr noundef %84, ptr noundef %85, ptr noundef %86)
  store ptr %87, ptr %4, align 8
  %88 = load ptr, ptr %6, align 8
  call void @g_free(ptr noundef %88)
  %89 = load ptr, ptr @ssldecrypt_uat, align 8
  %90 = load ptr, ptr %4, align 8
  %91 = call zeroext i1 @uat_load_str(ptr noundef %89, ptr noundef %90, ptr noundef %3)
  br i1 %91, label %96, label %92

92:                                               ; preds = %74
  %93 = load ptr, ptr %4, align 8
  %94 = load ptr, ptr %3, align 8
  call void (ptr, ...) @ssl_debug_printf(ptr noundef @.str.1071, ptr noundef %93, ptr noundef %94)
  %95 = load ptr, ptr %3, align 8
  call void @g_free(ptr noundef %95)
  br label %96

96:                                               ; preds = %92, %74
  %97 = load ptr, ptr %4, align 8
  call void @wmem_free(ptr noundef null, ptr noundef %97)
  call void @llvm.lifetime.end.p0(i64 8, ptr %7) #18
  call void @llvm.lifetime.end.p0(i64 8, ptr %6) #18
  br label %98

98:                                               ; preds = %96, %50, %45, %40, %29
  %99 = load ptr, ptr %2, align 8
  call void @g_strfreev(ptr noundef %99)
  br label %100

100:                                              ; preds = %98
  %101 = load i32, ptr %5, align 4
  %102 = add i32 %101, 1
  store i32 %102, ptr %5, align 4
  br label %22, !llvm.loop !13

103:                                              ; preds = %22
  %104 = load ptr, ptr %1, align 8
  call void @g_strfreev(ptr noundef %104)
  br label %105

105:                                              ; preds = %103, %13, %10, %0
  call void @llvm.lifetime.end.p0(i64 4, ptr %5) #18
  call void @llvm.lifetime.end.p0(i64 8, ptr %4) #18
  call void @llvm.lifetime.end.p0(i64 8, ptr %3) #18
  call void @llvm.lifetime.end.p0(i64 8, ptr %2) #18
  call void @llvm.lifetime.end.p0(i64 8, ptr %1) #18
  ret void
}

; Function Attrs: null_pointer_is_valid sspstrong uwtable
define hidden void @proto_reg_handoff_ssl() #0 {
  %1 = alloca ptr, align 8
  %2 = alloca ptr, align 8
  %3 = load ptr, ptr @ssl_debug_file_name, align 8
  %4 = load ptr, ptr getelementptr inbounds nuw (%struct.ssl_common_options, ptr @ssl_options, i32 0, i32 1), align 8
  %5 = call zeroext i1 @files_identical(ptr noundef %3, ptr noundef %4)
  br i1 %5, label %6, label %22

6:                                                ; preds = %0
  %7 = load ptr, ptr @ssl_debug_file_name, align 8
  %8 = load ptr, ptr getelementptr inbounds nuw (%struct.ssl_common_options, ptr @ssl_options, i32 0, i32 1), align 8
  call void (ptr, ...) @report_failure(ptr noundef @.str.961, ptr noundef %7, ptr noundef %8)
  call void @llvm.lifetime.start.p0(i64 8, ptr %1) #18
  %9 = call ptr @prefs_find_module(ptr noundef @.str.906)
  store ptr %9, ptr %1, align 8
  %10 = load ptr, ptr %1, align 8
  %11 = icmp ne ptr %10, null
  br i1 %11, label %12, label %21

12:                                               ; preds = %6
  call void @llvm.lifetime.start.p0(i64 8, ptr %2) #18
  %13 = load ptr, ptr %1, align 8
  %14 = call ptr @prefs_find_preference(ptr noundef %13, ptr noundef @.str.938)
  store ptr %14, ptr %2, align 8
  %15 = load ptr, ptr %2, align 8
  %16 = icmp ne ptr %15, null
  br i1 %16, label %17, label %20

17:                                               ; preds = %12
  %18 = load ptr, ptr %2, align 8
  %19 = call i32 @prefs_set_string_value(ptr noundef %18, ptr noundef @.str.26, i32 noundef 2)
  br label %20

20:                                               ; preds = %17, %12
  call void @llvm.lifetime.end.p0(i64 8, ptr %2) #18
  br label %21

21:                                               ; preds = %20, %6
  call void @llvm.lifetime.end.p0(i64 8, ptr %1) #18
  br label %22

22:                                               ; preds = %21, %0
  call void @ssl_parse_uat()
  call void @ssl_parse_old_keys()
  %23 = load i8, ptr @proto_reg_handoff_ssl.initialized, align 1, !range !6, !noundef !7
  %24 = trunc i8 %23 to i1
  br i1 %24, label %25, label %26

25:                                               ; preds = %22
  br label %32

26:                                               ; preds = %22
  store i8 1, ptr @proto_reg_handoff_ssl.initialized, align 1
  %27 = call i32 @find_tap_id(ptr noundef @.str.962)
  store i32 %27, ptr @exported_pdu_tap, align 4
  %28 = load i32, ptr @proto_tls, align 4
  call void @register_ber_oid_dissector(ptr noundef @.str.963, ptr noundef @dissect_tls_sct_ber, i32 noundef %28, ptr noundef @.str.964)
  %29 = load i32, ptr @proto_tls, align 4
  call void @register_ber_oid_dissector(ptr noundef @.str.965, ptr noundef @dissect_tls_sct_ber, i32 noundef %29, ptr noundef @.str.964)
  %30 = load i32, ptr @proto_tls, align 4
  call void @heur_dissector_add(ptr noundef @.str.966, ptr noundef @dissect_ssl_heur, ptr noundef @.str.967, ptr noundef @.str.968, i32 noundef %30, i32 noundef 1)
  %31 = load ptr, ptr @tls_handle, align 8
  call void @dissector_add_string(ptr noundef @.str.969, ptr noundef @.str.906, ptr noundef %31)
  br label %32

32:                                               ; preds = %26, %25
  ret void
}