; Function Attrs: null_pointer_is_valid sspstrong uwtable
define hidden void @proto_reg_handoff_ssl() #0 {
  %1 = alloca ptr, align 8
  %2 = load ptr, ptr @ssl_debug_file_name, align 8
  %3 = load ptr, ptr getelementptr inbounds nuw (i8, ptr @ssl_options, i64 8), align 8
  %4 = tail call zeroext i1 @files_identical(ptr noundef %2, ptr noundef %3)
  br i1 %4, label %5, label %13

5:                                                ; preds = %0
  %6 = load ptr, ptr @ssl_debug_file_name, align 8
  %7 = load ptr, ptr getelementptr inbounds nuw (i8, ptr @ssl_options, i64 8), align 8
  tail call void (ptr, ...) @report_failure(ptr noundef nonnull @.str.961, ptr noundef %6, ptr noundef %7)
  %8 = tail call ptr @prefs_find_module(ptr noundef nonnull @.str.906)
  %.not = icmp eq ptr %8, null
  br i1 %.not, label %13, label %9

9:                                                ; preds = %5
  %10 = tail call ptr @prefs_find_preference(ptr noundef nonnull %8, ptr noundef nonnull @.str.938)
  %.not5 = icmp eq ptr %10, null
  br i1 %.not5, label %13, label %11

11:                                               ; preds = %9
  %12 = tail call i32 @prefs_set_string_value(ptr noundef nonnull %10, ptr noundef nonnull @.str.26, i32 noundef 2)
  br label %13

13:                                               ; preds = %5, %11, %9, %0
  tail call void @ssl_parse_uat()
  call void @llvm.lifetime.start.p0(i64 8, ptr nonnull %1) #15
  %14 = load ptr, ptr @ssldecrypt_uat, align 8
  %15 = icmp ne ptr %14, null
  %16 = load ptr, ptr @ssl_keys_list, align 8
  %17 = icmp ne ptr %16, null
  %or.cond.i = select i1 %15, i1 %17, i1 false
  br i1 %or.cond.i, label %18, label %ssl_parse_old_keys.exit

18:                                               ; preds = %13
  %19 = load i8, ptr %16, align 1
  %.not.i = icmp eq i8 %19, 0
  br i1 %.not.i, label %ssl_parse_old_keys.exit, label %20

20:                                               ; preds = %18
  %21 = tail call ptr @g_strsplit(ptr noundef nonnull %16, ptr noundef nonnull @.str.1068, i32 noundef 0)
  %22 = load ptr, ptr %21, align 8
  %.not2834.i = icmp eq ptr %22, null
  br i1 %.not2834.i, label %._crit_edge.i, label %.lr.ph.i

.lr.ph.i:                                         ; preds = %20, %51
  %23 = phi ptr [ %55, %51 ], [ %22, %20 ]
  %.035.i = phi i32 [ %52, %51 ], [ 0, %20 ]
  %24 = call ptr @g_strsplit(ptr noundef nonnull %23, ptr noundef nonnull @.str.1069, i32 noundef 5)
  %25 = load ptr, ptr %24, align 8
  %.not29.i = icmp eq ptr %25, null
  br i1 %.not29.i, label %51, label %26

26:                                               ; preds = %.lr.ph.i
  %27 = getelementptr i8, ptr %24, i64 8
  %28 = load ptr, ptr %27, align 8
  %.not30.i = icmp eq ptr %28, null
  br i1 %.not30.i, label %51, label %29

29:                                               ; preds = %26
  %30 = getelementptr i8, ptr %24, i64 16
  %31 = load ptr, ptr %30, align 8
  %.not31.i = icmp eq ptr %31, null
  br i1 %.not31.i, label %51, label %32

32:                                               ; preds = %29
  %33 = getelementptr i8, ptr %24, i64 24
  %34 = load ptr, ptr %33, align 8
  %.not32.i = icmp eq ptr %34, null
  br i1 %.not32.i, label %51, label %35

35:                                               ; preds = %32
  %36 = call i64 @strlen(ptr noundef nonnull dereferenceable(1) %34) #16
  %37 = trunc i64 %36 to i32
  %38 = call ptr @uat_esc(ptr noundef nonnull %34, i32 noundef %37)
  %39 = getelementptr i8, ptr %24, i64 32
  %40 = load ptr, ptr %39, align 8
  %.not33.i = icmp eq ptr %40, null
  %spec.select.i = select i1 %.not33.i, ptr @.str.26, ptr %40
  %41 = load ptr, ptr %24, align 8
  %42 = load ptr, ptr %27, align 8
  %43 = load ptr, ptr %30, align 8
  %44 = call noalias ptr (ptr, ptr, ...) @wmem_strdup_printf(ptr noundef null, ptr noundef nonnull @.str.1070, ptr noundef %41, ptr noundef %42, ptr noundef %43, ptr noundef %38, ptr noundef nonnull %spec.select.i)
  call void @g_free(ptr noundef %38)
  %45 = load ptr, ptr @ssldecrypt_uat, align 8
  %46 = call zeroext i1 @uat_load_str(ptr noundef %45, ptr noundef %44, ptr noundef nonnull %1)
  br i1 %46, label %50, label %47

47:                                               ; preds = %35
  %48 = load ptr, ptr %1, align 8
  call void (ptr, ...) @ssl_debug_printf(ptr noundef nonnull @.str.1071, ptr noundef %44, ptr noundef %48)
  %49 = load ptr, ptr %1, align 8
  call void @g_free(ptr noundef %49)
  br label %50

50:                                               ; preds = %47, %35
  call void @wmem_free(ptr noundef null, ptr noundef %44)
  br label %51

51:                                               ; preds = %50, %32, %29, %26, %.lr.ph.i
  call void @g_strfreev(ptr noundef %24)
  %52 = add i32 %.035.i, 1
  %53 = zext i32 %52 to i64
  %54 = getelementptr ptr, ptr %21, i64 %53
  %55 = load ptr, ptr %54, align 8
  %.not28.i = icmp eq ptr %55, null
  br i1 %.not28.i, label %._crit_edge.i, label %.lr.ph.i, !llvm.loop !6

._crit_edge.i:                                    ; preds = %51, %20
  call void @g_strfreev(ptr noundef %21)
  br label %ssl_parse_old_keys.exit

ssl_parse_old_keys.exit:                          ; preds = %13, %18, %._crit_edge.i
  call void @llvm.lifetime.end.p0(i64 8, ptr nonnull %1) #15
  %.b6 = load i1, ptr @proto_reg_handoff_ssl.initialized, align 1
  br i1 %.b6, label %62, label %56

56:                                               ; preds = %ssl_parse_old_keys.exit
  store i1 true, ptr @proto_reg_handoff_ssl.initialized, align 1
  %57 = call i32 @find_tap_id(ptr noundef nonnull @.str.962)
  store i32 %57, ptr @exported_pdu_tap, align 4
  %58 = load i32, ptr @proto_tls, align 4
  call void @register_ber_oid_dissector(ptr noundef nonnull @.str.963, ptr noundef nonnull @dissect_tls_sct_ber, i32 noundef %58, ptr noundef nonnull @.str.964)
  %59 = load i32, ptr @proto_tls, align 4
  call void @register_ber_oid_dissector(ptr noundef nonnull @.str.965, ptr noundef nonnull @dissect_tls_sct_ber, i32 noundef %59, ptr noundef nonnull @.str.964)
  %60 = load i32, ptr @proto_tls, align 4
  call void @heur_dissector_add(ptr noundef nonnull @.str.966, ptr noundef nonnull @dissect_ssl_heur, ptr noundef nonnull @.str.967, ptr noundef nonnull @.str.968, i32 noundef %60, i32 noundef 1)
  %61 = load ptr, ptr @tls_handle, align 8
  call void @dissector_add_string(ptr noundef nonnull @.str.969, ptr noundef nonnull @.str.906, ptr noundef %61)
  br label %62

62:                                               ; preds = %ssl_parse_old_keys.exit, %56
  ret void
}